; Function Attrs: mustprogress uwtable
define hidden void @_ZN3fmt3v114file4dup2Ei(ptr noundef nonnull readonly align 4 captures(none) dereferenceable(4) %0, i32 noundef %1) local_unnamed_addr #6 align 2 personality ptr @__gxx_personality_v0 {
  %3 = alloca %"struct.fmt::v11::detail::format_arg_store.101", align 16
  br label %4

4:                                                ; preds = %13, %2
  %5 = load i32, ptr %0, align 4, !tbaa !24
  %6 = load i32, ptr @_ZN12_GLOBAL__N_110dup2_countE, align 4, !tbaa !10
  %.not.i = icmp eq i32 %6, 0
  br i1 %.not.i, label %_ZN4test4dup2Eii.exit, label %7

7:                                                ; preds = %4
  %8 = add nsw i32 %6, 1
  store i32 %8, ptr @_ZN12_GLOBAL__N_110dup2_countE, align 4, !tbaa !10
  %.not4.i = icmp eq i32 %6, 3
  br i1 %.not4.i, label %_ZN4test4dup2Eii.exit, label %_ZN4test4dup2Eii.exit.thread

_ZN4test4dup2Eii.exit.thread:                     ; preds = %7
  %9 = tail call ptr @__errno_location() #28
  store i32 4, ptr %9, align 4, !tbaa !10
  br label %13

_ZN4test4dup2Eii.exit:                            ; preds = %4, %7
  %10 = tail call i32 @dup2(i32 noundef %5, i32 noundef %1) #29
  %11 = icmp eq i32 %10, -1
  br i1 %11, label %_ZN4test4dup2Eii.exit._crit_edge, label %.critedge5

_ZN4test4dup2Eii.exit._crit_edge:                 ; preds = %_ZN4test4dup2Eii.exit
  %.pre = tail call ptr @__errno_location() #28
  %.pr = load i32, ptr %.pre, align 4, !tbaa !10
  %12 = icmp eq i32 %.pr, 4
  br label %13

13:                                               ; preds = %_ZN4test4dup2Eii.exit._crit_edge, %_ZN4test4dup2Eii.exit.thread
  %14 = phi i1 [ %12, %_ZN4test4dup2Eii.exit._crit_edge ], [ true, %_ZN4test4dup2Eii.exit.thread ]
  %.pre-phi = phi ptr [ %.pre, %_ZN4test4dup2Eii.exit._crit_edge ], [ %9, %_ZN4test4dup2Eii.exit.thread ]
  br i1 %14, label %4, label %15, !llvm.loop !51

15:                                               ; preds = %13
  %16 = tail call ptr @__cxa_allocate_exception(i64 32) #29
  %17 = load i32, ptr %.pre-phi, align 4, !tbaa !10
  call void @llvm.lifetime.start.p0(i64 32, ptr nonnull %3) #29, !noalias !52
  %18 = load i32, ptr %0, align 4, !tbaa !10, !noalias !52
  store i32 %18, ptr %3, align 16, !tbaa !17, !noalias !52
  %19 = getelementptr inbounds nuw i8, ptr %3, i64 16
  store i32 %1, ptr %19, align 16, !tbaa !17, !noalias !52
  invoke void @_ZN3fmt3v1113vsystem_errorEiNS0_17basic_string_viewIcEENS0_17basic_format_argsINS0_7contextEEE(ptr dead_on_unwind writable sret(%"class.std::system_error") align 8 %16, i32 noundef %17, ptr nonnull @.str.113, i64 41, i64 17, ptr nonnull %3)
          to label %20 unwind label %21

20:                                               ; preds = %15
  call void @llvm.lifetime.end.p0(i64 32, ptr nonnull %3) #29, !noalias !52
  call void @__cxa_throw(ptr %16, ptr nonnull @_ZTISt12system_error, ptr nonnull @_ZNSt12system_errorD1Ev) #31
  unreachable

21:                                               ; preds = %15
  %22 = landingpad { ptr, i32 }
          cleanup
  call void @__cxa_free_exception(ptr %16) #29
  resume { ptr, i32 } %22

.critedge5:                                       ; preds = %_ZN4test4dup2Eii.exit
  ret void
}